target datalayout = "e-m:e-p270:32:32-p271:32:32-p272:64:64-i64:64-i128:128-f80:128-n8:16:32:64-S128"
target triple = "x86_64-pc-linux-gnu"

@num_pairs = internal global i32 4, align 4

; Function Attrs: nounwind uwtable
define zeroext i1 @iterativePCA_1D(ptr noundef %0, i32 noundef %1, i32 noundef %2, ptr noundef %3) #0 {
  %5 = alloca ptr, align 8
  %6 = alloca i32, align 4
  %7 = alloca i32, align 4
  %8 = alloca ptr, align 8
  %9 = alloca ptr, align 8
  %10 = alloca ptr, align 8
  %11 = alloca ptr, align 8
  %12 = alloca double, align 8
  store ptr %0, ptr %5, align 8, !tbaa !10
  store i32 %1, ptr %6, align 4, !tbaa !8
  store i32 %2, ptr %7, align 4, !tbaa !8
  store ptr %3, ptr %8, align 8, !tbaa !12
  call void @llvm.lifetime.start.p0(i64 8, ptr %9) #9
  call void @llvm.lifetime.start.p0(i64 8, ptr %10) #9
  store ptr null, ptr %10, align 8, !tbaa !33
  call void @llvm.lifetime.start.p0(i64 8, ptr %11) #9
  store ptr null, ptr %11, align 8, !tbaa !10
  call void @llvm.lifetime.start.p0(i64 8, ptr %12) #9
  %13 = load ptr, ptr %5, align 8, !tbaa !10
  %14 = getelementptr inbounds ptr, ptr %13, i64 0
  %15 = load ptr, ptr %14, align 8, !tbaa !12
  %16 = load i32, ptr %7, align 4, !tbaa !8
  %17 = load i32, ptr @num_pairs, align 4, !tbaa !8
  %18 = load i32, ptr %7, align 4, !tbaa !8
  %19 = mul nsw i32 %17, %18
  call void @closest_pairs2graph(ptr noundef %15, i32 noundef %16, i32 noundef %19, ptr noundef %9)
  %20 = load ptr, ptr %9, align 8, !tbaa !32
  %21 = load ptr, ptr %5, align 8, !tbaa !10
  %22 = load i32, ptr %7, align 4, !tbaa !8
  %23 = load i32, ptr %6, align 4, !tbaa !8
  call void @mult_sparse_dense_mat_transpose(ptr noundef %20, ptr noundef %21, i32 noundef %22, i32 noundef %23, ptr noundef %10)
  %24 = load ptr, ptr %5, align 8, !tbaa !10
  %25 = load ptr, ptr %10, align 8, !tbaa !33
  %26 = load i32, ptr %6, align 4, !tbaa !8
  %27 = load i32, ptr %7, align 4, !tbaa !8
  %28 = load i32, ptr %6, align 4, !tbaa !8
  call void @mult_dense_mat_d(ptr noundef %24, ptr noundef %25, i32 noundef %26, i32 noundef %27, i32 noundef %28, ptr noundef %11)
  %29 = load ptr, ptr %10, align 8, !tbaa !33
  %30 = getelementptr inbounds ptr, ptr %29, i64 0
  %31 = load ptr, ptr %30, align 8, !tbaa !35
  call void @free(ptr noundef %31) #9
  %32 = load ptr, ptr %10, align 8, !tbaa !33
  call void @free(ptr noundef %32) #9
  %33 = load ptr, ptr %11, align 8, !tbaa !10
  %34 = load i32, ptr %6, align 4, !tbaa !8
  %35 = call zeroext i1 @power_iteration(ptr noundef %33, i32 noundef %34, i32 noundef 1, ptr noundef %8, ptr noundef %12)
  call void @llvm.lifetime.end.p0(i64 8, ptr %12) #9
  call void @llvm.lifetime.end.p0(i64 8, ptr %11) #9
  call void @llvm.lifetime.end.p0(i64 8, ptr %10) #9
  call void @llvm.lifetime.end.p0(i64 8, ptr %9) #9
  ret i1 %35
}