; Function Attrs: nounwind uwtable
define zeroext i1 @iterativePCA_1D(ptr noundef %0, i32 noundef %1, i32 noundef %2, ptr noundef %3) local_unnamed_addr #0 {
  %5 = alloca ptr, align 8
  %6 = alloca ptr, align 8
  %7 = alloca ptr, align 8
  %8 = alloca ptr, align 8
  %9 = alloca double, align 8
  store ptr %3, ptr %5, align 8, !tbaa !8
  call void @llvm.lifetime.start.p0(i64 8, ptr nonnull %6) #14
  call void @llvm.lifetime.start.p0(i64 8, ptr nonnull %7) #14
  store ptr null, ptr %7, align 8, !tbaa !26
  call void @llvm.lifetime.start.p0(i64 8, ptr nonnull %8) #14
  store ptr null, ptr %8, align 8, !tbaa !28
  call void @llvm.lifetime.start.p0(i64 8, ptr nonnull %9) #14
  %10 = load ptr, ptr %0, align 8, !tbaa !8
  %11 = shl nsw i32 %2, 2
  call void @closest_pairs2graph(ptr noundef %10, i32 noundef %2, i32 noundef %11, ptr noundef nonnull %6) #14
  %12 = load ptr, ptr %6, align 8, !tbaa !30
  call void @mult_sparse_dense_mat_transpose(ptr noundef %12, ptr noundef nonnull %0, i32 noundef %2, i32 noundef %1, ptr noundef nonnull %7) #14
  %13 = load ptr, ptr %7, align 8, !tbaa !26
  call void @mult_dense_mat_d(ptr noundef nonnull %0, ptr noundef %13, i32 noundef %1, i32 noundef %2, i32 noundef %1, ptr noundef nonnull %8) #14
  %14 = load ptr, ptr %7, align 8, !tbaa !26
  %15 = load ptr, ptr %14, align 8, !tbaa !31
  call void @free(ptr noundef %15) #14
  %16 = load ptr, ptr %7, align 8, !tbaa !26
  call void @free(ptr noundef %16) #14
  %17 = load ptr, ptr %8, align 8, !tbaa !28
  %18 = call zeroext i1 @power_iteration(ptr noundef %17, i32 noundef %1, i32 noundef 1, ptr noundef nonnull %5, ptr noundef nonnull %9) #14
  call void @llvm.lifetime.end.p0(i64 8, ptr nonnull %9) #14
  call void @llvm.lifetime.end.p0(i64 8, ptr nonnull %8) #14
  call void @llvm.lifetime.end.p0(i64 8, ptr nonnull %7) #14
  call void @llvm.lifetime.end.p0(i64 8, ptr nonnull %6) #14
  ret i1 %18
}